target datalayout = "e-m:e-p270:32:32-p271:32:32-p272:64:64-i64:64-i128:128-f80:128-n8:16:32:64-S128"
target triple = "x86_64-pc-linux-gnu"

%struct.Abc_BddMan_ = type { i32, i32, i32, ptr, ptr, ptr, ptr, ptr, ptr, i32, i32, i32, i32, i64 }

@.str = private unnamed_addr constant [65 x i8] c"BDD stats: Var = %d  Obj = %d  Alloc = %d  Hit = %d  Miss = %d  \00", align 1
@.str.1 = private unnamed_addr constant [15 x i8] c"Mem = %.2f MB\0A\00", align 1

; Function Attrs: nounwind uwtable
define void @Abc_BddManFree(ptr noundef %0) #0 {
  %2 = alloca ptr, align 8
  store ptr %0, ptr %2, align 8, !tbaa !7
  %3 = load ptr, ptr %2, align 8, !tbaa !7
  %4 = getelementptr inbounds nuw %struct.Abc_BddMan_, ptr %3, i32 0, i32 0
  %5 = load i32, ptr %4, align 8, !tbaa !10
  %6 = load ptr, ptr %2, align 8, !tbaa !7
  %7 = getelementptr inbounds nuw %struct.Abc_BddMan_, ptr %6, i32 0, i32 1
  %8 = load i32, ptr %7, align 4, !tbaa !25
  %9 = load ptr, ptr %2, align 8, !tbaa !7
  %10 = getelementptr inbounds nuw %struct.Abc_BddMan_, ptr %9, i32 0, i32 2
  %11 = load i32, ptr %10, align 8, !tbaa !15
  %12 = load ptr, ptr %2, align 8, !tbaa !7
  %13 = getelementptr inbounds nuw %struct.Abc_BddMan_, ptr %12, i32 0, i32 11
  %14 = load i32, ptr %13, align 8, !tbaa !30
  %15 = load ptr, ptr %2, align 8, !tbaa !7
  %16 = getelementptr inbounds nuw %struct.Abc_BddMan_, ptr %15, i32 0, i32 12
  %17 = load i32, ptr %16, align 4, !tbaa !31
  %18 = sub nsw i32 %14, %17
  %19 = load ptr, ptr %2, align 8, !tbaa !7
  %20 = getelementptr inbounds nuw %struct.Abc_BddMan_, ptr %19, i32 0, i32 12
  %21 = load i32, ptr %20, align 4, !tbaa !31
  %22 = call i32 (ptr, ...) @printf(ptr noundef @.str, i32 noundef %5, i32 noundef %8, i32 noundef %11, i32 noundef %18, i32 noundef %21)
  %23 = load ptr, ptr %2, align 8, !tbaa !7
  %24 = getelementptr inbounds nuw %struct.Abc_BddMan_, ptr %23, i32 0, i32 13
  %25 = load i64, ptr %24, align 8, !tbaa !28
  %26 = udiv i64 %25, 1048576
  %27 = trunc i64 %26 to i32
  %28 = sitofp i32 %27 to double
  %29 = fmul double 4.000000e+00, %28
  %30 = call i32 (ptr, ...) @printf(ptr noundef @.str.1, double noundef %29)
  %31 = load ptr, ptr %2, align 8, !tbaa !7
  %32 = getelementptr inbounds nuw %struct.Abc_BddMan_, ptr %31, i32 0, i32 3
  %33 = load ptr, ptr %32, align 8, !tbaa !18
  %34 = icmp ne ptr %33, null
  br i1 %34, label %35, label %41

35:                                               ; preds = %1
  %36 = load ptr, ptr %2, align 8, !tbaa !7
  %37 = getelementptr inbounds nuw %struct.Abc_BddMan_, ptr %36, i32 0, i32 3
  %38 = load ptr, ptr %37, align 8, !tbaa !18
  call void @free(ptr noundef %38) #9
  %39 = load ptr, ptr %2, align 8, !tbaa !7
  %40 = getelementptr inbounds nuw %struct.Abc_BddMan_, ptr %39, i32 0, i32 3
  store ptr null, ptr %40, align 8, !tbaa !18
  br label %42

41:                                               ; preds = %1
  br label %42

42:                                               ; preds = %41, %35
  %43 = load ptr, ptr %2, align 8, !tbaa !7
  %44 = getelementptr inbounds nuw %struct.Abc_BddMan_, ptr %43, i32 0, i32 4
  %45 = load ptr, ptr %44, align 8, !tbaa !19
  %46 = icmp ne ptr %45, null
  br i1 %46, label %47, label %53

47:                                               ; preds = %42
  %48 = load ptr, ptr %2, align 8, !tbaa !7
  %49 = getelementptr inbounds nuw %struct.Abc_BddMan_, ptr %48, i32 0, i32 4
  %50 = load ptr, ptr %49, align 8, !tbaa !19
  call void @free(ptr noundef %50) #9
  %51 = load ptr, ptr %2, align 8, !tbaa !7
  %52 = getelementptr inbounds nuw %struct.Abc_BddMan_, ptr %51, i32 0, i32 4
  store ptr null, ptr %52, align 8, !tbaa !19
  br label %54

53:                                               ; preds = %42
  br label %54

54:                                               ; preds = %53, %47
  %55 = load ptr, ptr %2, align 8, !tbaa !7
  %56 = getelementptr inbounds nuw %struct.Abc_BddMan_, ptr %55, i32 0, i32 5
  %57 = load ptr, ptr %56, align 8, !tbaa !20
  %58 = icmp ne ptr %57, null
  br i1 %58, label %59, label %65

59:                                               ; preds = %54
  %60 = load ptr, ptr %2, align 8, !tbaa !7
  %61 = getelementptr inbounds nuw %struct.Abc_BddMan_, ptr %60, i32 0, i32 5
  %62 = load ptr, ptr %61, align 8, !tbaa !20
  call void @free(ptr noundef %62) #9
  %63 = load ptr, ptr %2, align 8, !tbaa !7
  %64 = getelementptr inbounds nuw %struct.Abc_BddMan_, ptr %63, i32 0, i32 5
  store ptr null, ptr %64, align 8, !tbaa !20
  br label %66

65:                                               ; preds = %54
  br label %66

66:                                               ; preds = %65, %59
  %67 = load ptr, ptr %2, align 8, !tbaa !7
  %68 = getelementptr inbounds nuw %struct.Abc_BddMan_, ptr %67, i32 0, i32 6
  %69 = load ptr, ptr %68, align 8, !tbaa !21
  %70 = icmp ne ptr %69, null
  br i1 %70, label %71, label %77

71:                                               ; preds = %66
  %72 = load ptr, ptr %2, align 8, !tbaa !7
  %73 = getelementptr inbounds nuw %struct.Abc_BddMan_, ptr %72, i32 0, i32 6
  %74 = load ptr, ptr %73, align 8, !tbaa !21
  call void @free(ptr noundef %74) #9
  %75 = load ptr, ptr %2, align 8, !tbaa !7
  %76 = getelementptr inbounds nuw %struct.Abc_BddMan_, ptr %75, i32 0, i32 6
  store ptr null, ptr %76, align 8, !tbaa !21
  br label %78

77:                                               ; preds = %66
  br label %78

78:                                               ; preds = %77, %71
  %79 = load ptr, ptr %2, align 8, !tbaa !7
  %80 = getelementptr inbounds nuw %struct.Abc_BddMan_, ptr %79, i32 0, i32 7
  %81 = load ptr, ptr %80, align 8, !tbaa !23
  %82 = icmp ne ptr %81, null
  br i1 %82, label %83, label %89

83:                                               ; preds = %78
  %84 = load ptr, ptr %2, align 8, !tbaa !7
  %85 = getelementptr inbounds nuw %struct.Abc_BddMan_, ptr %84, i32 0, i32 7
  %86 = load ptr, ptr %85, align 8, !tbaa !23
  call void @free(ptr noundef %86) #9
  %87 = load ptr, ptr %2, align 8, !tbaa !7
  %88 = getelementptr inbounds nuw %struct.Abc_BddMan_, ptr %87, i32 0, i32 7
  store ptr null, ptr %88, align 8, !tbaa !23
  br label %90

89:                                               ; preds = %78
  br label %90

90:                                               ; preds = %89, %83
  %91 = load ptr, ptr %2, align 8, !tbaa !7
  %92 = icmp ne ptr %91, null
  br i1 %92, label %93, label %95

93:                                               ; preds = %90
  %94 = load ptr, ptr %2, align 8, !tbaa !7
  call void @free(ptr noundef %94) #9
  store ptr null, ptr %2, align 8, !tbaa !7
  br label %96

95:                                               ; preds = %90
  br label %96

96:                                               ; preds = %95, %93
  ret void
}