; Function Attrs: nounwind uwtable
define void @Abc_BddManFree(ptr noundef captures(none) %0) local_unnamed_addr #2 {
  %2 = load i32, ptr %0, align 8, !tbaa !3
  %3 = getelementptr inbounds nuw i8, ptr %0, i64 4
  %4 = load i32, ptr %3, align 4, !tbaa !22
  %5 = getelementptr inbounds nuw i8, ptr %0, i64 8
  %6 = load i32, ptr %5, align 8, !tbaa !12
  %7 = getelementptr inbounds nuw i8, ptr %0, i64 72
  %8 = load i32, ptr %7, align 8, !tbaa !30
  %9 = getelementptr inbounds nuw i8, ptr %0, i64 76
  %10 = load i32, ptr %9, align 4, !tbaa !31
  %11 = sub nsw i32 %8, %10
  %12 = tail call i32 (ptr, ...) @printf(ptr noundef nonnull dereferenceable(1) @.str, i32 noundef %2, i32 noundef %4, i32 noundef %6, i32 noundef %11, i32 noundef %10)
  %13 = getelementptr inbounds nuw i8, ptr %0, i64 80
  %14 = load i64, ptr %13, align 8, !tbaa !29
  %15 = lshr i64 %14, 20
  %16 = trunc i64 %15 to i32
  %17 = sitofp i32 %16 to double
  %18 = fmul double %17, 4.000000e+00
  %19 = tail call i32 (ptr, ...) @printf(ptr noundef nonnull dereferenceable(1) @.str.1, double noundef %18)
  %20 = getelementptr inbounds nuw i8, ptr %0, i64 16
  %21 = load ptr, ptr %20, align 8, !tbaa !15
  %.not = icmp eq ptr %21, null
  br i1 %.not, label %23, label %22

22:                                               ; preds = %1
  tail call void @free(ptr noundef nonnull %21) #13
  store ptr null, ptr %20, align 8, !tbaa !15
  br label %23

23:                                               ; preds = %1, %22
  %24 = getelementptr inbounds nuw i8, ptr %0, i64 24
  %25 = load ptr, ptr %24, align 8, !tbaa !16
  %.not28 = icmp eq ptr %25, null
  br i1 %.not28, label %27, label %26

26:                                               ; preds = %23
  tail call void @free(ptr noundef nonnull %25) #13
  store ptr null, ptr %24, align 8, !tbaa !16
  br label %27

27:                                               ; preds = %23, %26
  %28 = getelementptr inbounds nuw i8, ptr %0, i64 32
  %29 = load ptr, ptr %28, align 8, !tbaa !17
  %.not29 = icmp eq ptr %29, null
  br i1 %.not29, label %31, label %30

30:                                               ; preds = %27
  tail call void @free(ptr noundef nonnull %29) #13
  store ptr null, ptr %28, align 8, !tbaa !17
  br label %31

31:                                               ; preds = %27, %30
  %32 = getelementptr inbounds nuw i8, ptr %0, i64 40
  %33 = load ptr, ptr %32, align 8, !tbaa !18
  %.not30 = icmp eq ptr %33, null
  br i1 %.not30, label %35, label %34

34:                                               ; preds = %31
  tail call void @free(ptr noundef nonnull %33) #13
  store ptr null, ptr %32, align 8, !tbaa !18
  br label %35

35:                                               ; preds = %31, %34
  %36 = getelementptr inbounds nuw i8, ptr %0, i64 48
  %37 = load ptr, ptr %36, align 8, !tbaa !20
  %.not31 = icmp eq ptr %37, null
  br i1 %.not31, label %39, label %38

38:                                               ; preds = %35
  tail call void @free(ptr noundef nonnull %37) #13
  br label %39

39:                                               ; preds = %38, %35
  tail call void @free(ptr noundef nonnull %0) #13
  ret void
}